(dp0
S'Blocks_Params'
p1
(dp2
S'Contrast_beta_1'
p3
cnumpy.core.multiarray
scalar
p4
(cnumpy
dtype
p5
(S'f8'
p6
I0
I1
tp7
Rp8
(I3
S'<'
p9
NNNI-1
I-1
I0
tp10
bS'\xffl\x94\x93\xfdW\xbb@'
p11
tp12
Rp13
sS'Contrast_beta_3'
p14
g4
(g8
S'\x89&*A\x008\xa8@'
p15
tp16
Rp17
sS'Contrast_beta_2'
p18
g4
(g8
S'\xa8>\xeei^\x02\x7f@'
p19
tp20
Rp21
sS'Mean_beta_2'
p22
g4
(g8
S'\\JYZ\n\x03z@'
p23
tp24
Rp25
sS'Mean_K_1'
p26
g4
(g8
S'{\xd4\xfa\x9eH8~?'
p27
tp28
Rp29
sS'Mean_K_2'
p30
g4
(g8
S'\xbd=|\xea\x13\xcd\x96?'
p31
tp32
Rp33
sS'Mean_beta_1'
p34
g4
(g8
S'\xb0\xfd(\xcb\xcfYL@'
p35
tp36
Rp37
sS'Contrast_alpha_2'
p38
g4
(g8
S'V\x0eK\x13\xf3\x82\xf5\xbf'
p39
tp40
Rp41
sS'Contrast_alpha_3'
p42
g4
(g8
S'v\x14^\x00Q\xb5\xfc\xbf'
p43
tp44
Rp45
sS'Contrast_alpha_1'
p46
g4
(g8
S'\xea\x9c\x1br\xb1\xac\x01\xc0'
p47
tp48
Rp49
sS'Contrast_K_1'
p50
g4
(g8
S'U\x1f\xea\x16^\xc7\xb0>'
p51
tp52
Rp53
sS'Contrast_K_3'
p54
g4
(g8
S'o\xab\xf3\x88M\xabA?'
p55
tp56
Rp57
sS'Contrast_K_2'
p58
g4
(g8
S"'\xd3sMj\xdb\x91?"
p59
tp60
Rp61
sS'Gralbeta_G'
p62
I1000
sS'Contrast_tau_2'
p63
g4
(g8
S'\x0e\x0c@\xe1\xff\xff\xdf?'
p64
tp65
Rp66
sS'Contrast_tau_3'
p67
g4
(g8
S'`\xaaq \x1e\xb6\xfb?'
p68
tp69
Rp70
sS'Contrast_tau_1'
p71
g4
(g8
S'\x1a!\xdcmG\xa4\xf0?'
p72
tp73
Rp74
sS'Mean_X0_2'
p75
g4
(g8
S'\xd5\x01>\xfb:\xef\xb6?'
p76
tp77
Rp78
sS'Mean_X0_3'
p79
g4
(g8
S'\x11\x89\xab\xdc+t\xba?'
p80
tp81
Rp82
sS'Mean_X0_1'
p83
g4
(g8
S'\xc8\x91="\xdf\x12#?'
p84
tp85
Rp86
sS'Mean_tau_3'
p87
g4
(g8
S'/\xcc\xab\xdb\xe9\xa9\r@'
p88
tp89
Rp90
sS'Mean_tau_2'
p91
g4
(g8
S'\x92\x90\xa7\x0f\x17A\xe3?'
p92
tp93
Rp94
sS'Mean_tau_1'
p95
g4
(g8
S'\xb47\x87\xed\xe8x @'
p96
tp97
Rp98
sS'Mean_beta_3'
p99
I2000
sS"Contrast_beta_G']"
p100
g4
(g8
S'S(\x88\xc0\xc4g0@'
p101
tp102
Rp103
sS'Mean_alpha_2'
p104
g4
(g8
S'\xa1\xb7\xfc\x99\xb7\xd0\xf3\xbf'
p105
tp106
Rp107
sS'Mean_K_3'
p108
g4
(g8
S'r\xea\x9d\x15\x9e\t{?'
p109
tp110
Rp111
sS'Contrast_X0_1'
p112
g4
(g8
S'\x18,\x17\xb1\x9eC\xe9?'
p113
tp114
Rp115
sS'Contrast_X0_3'
p116
g4
(g8
S'\xb0[h\xc6\x87\xeb\x1e@'
p117
tp118
Rp119
sS'Contrast_X0_2'
p120
g4
(g8
S'\x9d\xfa\xa4\x8351\xd5?'
p121
tp122
Rp123
sS'Mean_alpha_3'
p124
g4
(g8
S'b\xb4 \xbf$\xa8\xf2\xbf'
p125
tp126
Rp127
sS'Mean_beta_G'
p128
g4
(g8
S'\xaeR\x95\x00\xcb)/@'
p129
tp130
Rp131
sS'Mean_alpha_1'
p132
g4
(g8
S'\xec\xb8\xdc\x82\xd9\x1f\xfb\xbf'
p133
tp134
Rp135
ss.