(dp0
S'Mean_beta_2'
p1
F416.1900275695714
sS'Mean_K_1'
p2
F0.00737789504608088
sS'Mean_K_2'
p3
F0.022266684710357632
sS'Mean_K_3'
p4
F0.006600968854281507
sS'Contrast_alpha_2'
p5
F-1.344470095981611
sS'Contrast_alpha_3'
p6
F-1.794266702113672
sS'Contrast_alpha_1'
p7
F-2.2093228258778383
sS'y1'
p8
F0.0
sS'y3'
p9
F0.0
sS'y2'
p10
F0.0
sS'y5'
p11
F0.0
sS'Contrast_B_1'
p12
F-0.9975992867368805
sS'Contrast_B_2'
p13
F-0.9950124685429768
sS'Contrast_B_3'
p14
F-0.9985575916094257
sS'Mean_A_2'
p15
F0.002073155636233452
sS'Mean_A_3'
p16
F0.0003369984766284639
sS'Mean_A_1'
p17
F0.00015174687177639374
sS'Bm'
p18
F-0.9975031210986267
sS'Mean_beta_3'
p19
I2000
sS'Mean_beta_1'
p20
F56.70165385724556
sS'th13'
p21
F15.975743854444108
sS'th12'
p22
F222.32525413975213
sS'th11'
p23
F-4.317249640984547
sS'th10'
p24
F1.7460265954533079
sS'th14'
p25
F55.93469622334739
sS'u_hat'
p26
F0.54
sS'Mean_y_2'
p27
F0.0
sS'Mean_y_3'
p28
F0.0
sS'Mean_y_1'
p29
F0.0
sS'num'
p30
F0.0
sS'Contrast_K_1'
p31
F1.0000931884041385e-06
sS'Contrast_K_3'
p32
F0.0005392197216712423
sS'Contrast_K_2'
p33
F0.017438565232583827
sS'um'
p34
F0.0
sS'y4'
p35
F0.0
sS'mum'
p36
F0.0
sS'y6'
p37
F0.0
sS'bg'
p38
F540.0
sS'Mean_g_1'
p39
F0.0
sS'Mean_g_2'
p40
F0.0
sS'Mean_g_3'
p41
F0.0
sS'Mean_alpha_1'
p42
F-1.695275794201332
sS'Contrast_A_3'
p43
F0.0007212041952871236
sS'Contrast_A_2'
p44
F0.0024937657285116362
sS'Contrast_A_1'
p45
F0.0012003566315597568
sS'Contrast_ym_3'
p46
F7.73001012813522
sS'Contrast_ym_2'
p47
F0.3311284814443896
sS'Contrast_ym_1'
p48
F0.7895043810652878
sS'Contrast_beta_1'
p49
F6999.990533138857
sS'Contrast_beta_3'
p50
F3100.000497166828
sS'Contrast_beta_2'
p51
F496.1480502420841
sS'u5'
p52
F0.0
sS'u4'
p53
F0.0
sS'u7'
p54
F0.0
sS'u6'
p55
F0.0
sS'u1'
p56
F0.0
sS'u3'
p57
F0.0
sS'u2'
p58
F0.0
sS'Mean_f_1'
p59
F0.0
sS'Mean_f_3'
p60
F0.0
sS'Mean_f_2'
p61
F0.0
sS'Mean_B_1'
p62
F-0.9996965062564472
sS'Mean_B_3'
p63
F-0.9993260030467431
sS'Mean_B_2'
p64
F-0.9958536887275331
sS'Contrast_f_1'
p65
F0.0
sS'Contrast_f_2'
p66
F0.0
sS'Contrast_f_3'
p67
F0.0
sS'mu'
p68
F0.0
sS'Mean_alpha_3'
p69
F-1.1660506692817525
sS'Mean_alpha_2'
p70
F-1.2384563460468387
sS'Contrast_g'
p71
F0.0
sS'Mean_ym_1'
p72
F0.00014552091408427518
sS'Mean_ym_2'
p73
F0.08958786615222121
sS'Mean_ym_3'
p74
F0.1033351339097275
sS'th9'
p75
F0.023525588530921453
sS'th8'
p76
F-0.0984690686934116
sS'th7'
p77
F-77.972185363958
sS'th6'
p78
F-1.2903567655625068
sS'th5'
p79
F-0.8411215689738905
sS'th4'
p80
F8.17481986578174
sS'th3'
p81
F0.02488988838944132
sS'th2'
p82
F-91.28426100437594
sS'th1'
p83
F0.06750794129274391
sS'th0'
p84
F0.8669984683919792
sS'nu'
p85
F0.0
sS'Contrast_y_3'
p86
F0.0
sS'Contrast_y_2'
p87
F0.0
sS'Contrast_y_1'
p88
F0.0
sS'u_hat_thresh'
p89
F0.54
sS'Mean_g'
p90
F0.0
sS'Contrast_g_1'
p91
F0.0
sS'Contrast_g_3'
p92
F0.0
sS'Contrast_g_2'
p93
F0.0
sS'Am'
p94
F0.0012484394506866417
sS'y'
p95
F0.0
s.