(dp0
S'Contrast_beta_1'
p1
F29.549829324629794
sS'Contrast_beta_3'
p2
F10000.000065685854
sS'Contrast_beta_2'
p3
F4897.885792359665
sS'Mean_beta_2'
p4
F1486.9828863405755
sS'Mean_K_1'
p5
F0.05660827546049823
sS'Mean_K_2'
p6
F0.029215710338904667
sS'Mean_beta_1'
p7
F27.075024627883682
sS'Contrast_alpha_2'
p8
F-1.0001104703850352
sS'Contrast_alpha_3'
p9
F5.359136628820855
sS'Contrast_alpha_1'
p10
F-6.560770381381171
sS'Contrast_K_1'
p11
F7.230860830055065e-05
sS'Contrast_B_1'
p12
F-0.9238090591194484
sS'Contrast_K_3'
p13
F7.409684254625518e-06
sS'Contrast_K_2'
p14
F0.030213802669113086
sS'Mean_A_2'
p15
F0.001594404784751335
sS'Mean_A_3'
p16
F6.852318632001545e-05
sS'Mean_A_1'
p17
F0.015630527180787702
sS'Bm'
p18
F-0.9975031210986267
sS'Gralbeta_G'
p19
F91.78699458582997
sS'Contrast_tau_2'
p20
F1.1662441989572454
sS'Contrast_B_2'
p21
F-0.9978586617370494
sS'Contrast_tau_1'
p22
F0.03156229987590492
sS'Contrast_B_3'
p23
F-0.9950124686941431
sS'Mean_X0_2'
p24
F0.23154641120343833
sS'Mean_X0_3'
p25
F1.7710265413568003
sS'Contrast_tau_3'
p26
F0.4999999865543145
sS'Mean_tau_3'
p27
F18.24075051296911
sS'Mean_tau_2'
p28
F0.7827416261885473
sS'Mean_tau_1'
p29
F0.0787217108413618
sS'Mean_B_1'
p30
F-0.9687389456384246
sS'Mean_B_3'
p31
F-0.99986295362736
sS'Mean_B_2'
p32
F-0.9968111904304974
sS"Contrast_beta_G']"
p33
F17.857420943456233
sS'Mean_beta_G'
p34
F15.423965140862803
sS'Mean_K_3'
p35
F0.0004562250519474805
sS'Mean_beta_3'
p36
F10000.000065689226
sS'Contrast_X0_1'
p37
F17.914852686500005
sS'Contrast_X0_3'
p38
F6.08041082239588
sS'Contrast_X0_2'
p39
F1.6849872546597822
sS'Contrast_A_3'
p40
F0.0024937656529284563
sS'Contrast_A_2'
p41
F0.0010706691314752957
sS'Contrast_A_1'
p42
F0.03809547044027577
sS'Am'
p43
F0.0012484394506866417
sS'Mean_alpha_3'
p44
F-1.790718415843653
sS'Mean_alpha_2'
p45
F-0.847919594997085
sS'Mean_alpha_1'
p46
F-4.663241886575155
sS'Mean_X0_1'
p47
F0.431403945441775
s.